target datalayout = "e-m:e-p270:32:32-p271:32:32-p272:64:64-i64:64-i128:128-f80:128-n8:16:32:64-S128"
target triple = "x86_64-pc-linux-gnu"

%struct.lean_object = type { i32, i32 }
%struct.lean_string_object = type { %struct.lean_object, i64, i64, i64, [0 x i8] }
%struct.lean_ctor_object = type { %struct.lean_object, [0 x ptr] }

@l_Lean_Elab_Tactic_BVDecide_Frontend_Normalize_enumToBitVecSuffix = global ptr null, align 8

; Function Attrs: inlinehint nounwind uwtable
define internal ptr @lean_to_string(ptr noundef %0) #0 {
  %2 = alloca ptr, align 8
  store ptr %0, ptr %2, align 8, !tbaa !4
  %3 = load ptr, ptr %2, align 8, !tbaa !4
  ret ptr %3
}

; Function Attrs: inlinehint nounwind uwtable
define internal i64 @lean_string_size(ptr noundef %0) #0 {
  %2 = alloca ptr, align 8
  store ptr %0, ptr %2, align 8, !tbaa !4
  %3 = load ptr, ptr %2, align 8, !tbaa !4
  %4 = call ptr @lean_to_string(ptr noundef %3)
  %5 = getelementptr inbounds nuw %struct.lean_string_object, ptr %4, i32 0, i32 1
  %6 = load i64, ptr %5, align 8, !tbaa !8
  ret i64 %6
}

; Function Attrs: inlinehint nounwind uwtable
define internal ptr @lean_to_ctor(ptr noundef %0) #0 {
  %2 = alloca ptr, align 8
  store ptr %0, ptr %2, align 8, !tbaa !4
  %3 = load ptr, ptr %2, align 8, !tbaa !4
  ret ptr %3
}

; Function Attrs: inlinehint nounwind uwtable
define internal zeroext i1 @lean_string_eq(ptr noundef %0, ptr noundef %1) #0 {
  %3 = alloca ptr, align 8
  %4 = alloca ptr, align 8
  store ptr %0, ptr %3, align 8, !tbaa !4
  store ptr %1, ptr %4, align 8, !tbaa !4
  %5 = load ptr, ptr %3, align 8, !tbaa !4
  %6 = load ptr, ptr %4, align 8, !tbaa !4
  %7 = icmp eq ptr %5, %6
  br i1 %7, label %20, label %8

8:                                                ; preds = %2
  %9 = load ptr, ptr %3, align 8, !tbaa !4
  %10 = call i64 @lean_string_size(ptr noundef %9)
  %11 = load ptr, ptr %4, align 8, !tbaa !4
  %12 = call i64 @lean_string_size(ptr noundef %11)
  %13 = icmp eq i64 %10, %12
  br i1 %13, label %14, label %18

14:                                               ; preds = %8
  %15 = load ptr, ptr %3, align 8, !tbaa !4
  %16 = load ptr, ptr %4, align 8, !tbaa !4
  %17 = call zeroext i1 @lean_string_eq_cold(ptr noundef %15, ptr noundef %16)
  br label %18

18:                                               ; preds = %14, %8
  %19 = phi i1 [ false, %8 ], [ %17, %14 ]
  br label %20

20:                                               ; preds = %18, %2
  %21 = phi i1 [ true, %2 ], [ %19, %18 ]
  ret i1 %21
}

; Function Attrs: inlinehint nounwind uwtable
define internal ptr @lean_ctor_obj_cptr(ptr noundef %0) #0 {
  %2 = alloca ptr, align 8
  store ptr %0, ptr %2, align 8, !tbaa !4
  %3 = load ptr, ptr %2, align 8, !tbaa !4
  %4 = call ptr @lean_to_ctor(ptr noundef %3)
  %5 = getelementptr inbounds nuw %struct.lean_ctor_object, ptr %4, i32 0, i32 1
  %6 = getelementptr inbounds [0 x ptr], ptr %5, i64 0, i64 0
  ret ptr %6
}

; Function Attrs: inlinehint nounwind uwtable
define internal zeroext i8 @lean_ptr_tag(ptr noundef %0) #0 {
  %2 = alloca ptr, align 8
  store ptr %0, ptr %2, align 8, !tbaa !4
  %3 = load ptr, ptr %2, align 8, !tbaa !4
  %4 = getelementptr inbounds nuw %struct.lean_object, ptr %3, i32 0, i32 1
  %5 = load i32, ptr %4, align 4
  %6 = lshr i32 %5, 24
  %7 = trunc i32 %6 to i8
  ret i8 %7
}

; Function Attrs: inlinehint nounwind uwtable
define internal i64 @lean_unbox(ptr noundef %0) #0 {
  %2 = alloca ptr, align 8
  store ptr %0, ptr %2, align 8, !tbaa !4
  %3 = load ptr, ptr %2, align 8, !tbaa !4
  %4 = ptrtoint ptr %3 to i64
  %5 = lshr i64 %4, 1
  ret i64 %5
}

; Function Attrs: alwaysinline nounwind uwtable
define internal void @lean_dec_ref(ptr noundef %0) #1 {
  %2 = alloca ptr, align 8
  store ptr %0, ptr %2, align 8, !tbaa !4
  %3 = load ptr, ptr %2, align 8, !tbaa !4
  %4 = getelementptr inbounds nuw %struct.lean_object, ptr %3, i32 0, i32 0
  %5 = load i32, ptr %4, align 4, !tbaa !15
  %6 = icmp sgt i32 %5, 1
  %7 = zext i1 %6 to i32
  %8 = sext i32 %7 to i64
  %9 = call i64 @llvm.expect.i64(i64 %8, i64 1)
  %10 = icmp ne i64 %9, 0
  br i1 %10, label %11, label %16

11:                                               ; preds = %1
  %12 = load ptr, ptr %2, align 8, !tbaa !4
  %13 = getelementptr inbounds nuw %struct.lean_object, ptr %12, i32 0, i32 0
  %14 = load i32, ptr %13, align 4, !tbaa !15
  %15 = add i32 %14, -1
  store i32 %15, ptr %13, align 4, !tbaa !15
  br label %24

16:                                               ; preds = %1
  %17 = load ptr, ptr %2, align 8, !tbaa !4
  %18 = getelementptr inbounds nuw %struct.lean_object, ptr %17, i32 0, i32 0
  %19 = load i32, ptr %18, align 4, !tbaa !15
  %20 = icmp ne i32 %19, 0
  br i1 %20, label %21, label %23

21:                                               ; preds = %16
  %22 = load ptr, ptr %2, align 8, !tbaa !4
  call void @lean_dec_ref_cold(ptr noundef %22)
  br label %23

23:                                               ; preds = %21, %16
  br label %24

24:                                               ; preds = %23, %11
  ret void
}

; Function Attrs: alwaysinline nounwind uwtable
define internal zeroext i1 @lean_is_scalar(ptr noundef %0) #1 {
  %2 = alloca ptr, align 8
  store ptr %0, ptr %2, align 8, !tbaa !4
  %3 = load ptr, ptr %2, align 8, !tbaa !4
  %4 = ptrtoint ptr %3 to i64
  %5 = and i64 %4, 1
  %6 = icmp eq i64 %5, 1
  ret i1 %6
}

; Function Attrs: inlinehint nounwind uwtable
define internal zeroext i8 @lean_string_dec_eq(ptr noundef %0, ptr noundef %1) #0 {
  %3 = alloca ptr, align 8
  %4 = alloca ptr, align 8
  store ptr %0, ptr %3, align 8, !tbaa !4
  store ptr %1, ptr %4, align 8, !tbaa !4
  %5 = load ptr, ptr %3, align 8, !tbaa !4
  %6 = load ptr, ptr %4, align 8, !tbaa !4
  %7 = call zeroext i1 @lean_string_eq(ptr noundef %5, ptr noundef %6)
  %8 = zext i1 %7 to i8
  ret i8 %8
}

; Function Attrs: inlinehint nounwind uwtable
define internal ptr @lean_ctor_get(ptr noundef %0, i32 noundef %1) #0 {
  %3 = alloca ptr, align 8
  %4 = alloca i32, align 4
  store ptr %0, ptr %3, align 8, !tbaa !4
  store i32 %1, ptr %4, align 4, !tbaa !10
  %5 = load ptr, ptr %3, align 8, !tbaa !4
  %6 = call ptr @lean_ctor_obj_cptr(ptr noundef %5)
  %7 = load i32, ptr %4, align 4, !tbaa !10
  %8 = zext i32 %7 to i64
  %9 = getelementptr inbounds nuw ptr, ptr %6, i64 %8
  %10 = load ptr, ptr %9, align 8, !tbaa !4
  ret ptr %10
}

; Function Attrs: inlinehint nounwind uwtable
define internal i32 @lean_obj_tag(ptr noundef %0) #0 {
  %2 = alloca i32, align 4
  %3 = alloca ptr, align 8
  store ptr %0, ptr %3, align 8, !tbaa !4
  %4 = load ptr, ptr %3, align 8, !tbaa !4
  %5 = call zeroext i1 @lean_is_scalar(ptr noundef %4)
  br i1 %5, label %6, label %10

6:                                                ; preds = %1
  %7 = load ptr, ptr %3, align 8, !tbaa !4
  %8 = call i64 @lean_unbox(ptr noundef %7)
  %9 = trunc i64 %8 to i32
  store i32 %9, ptr %2, align 4
  br label %14

10:                                               ; preds = %1
  %11 = load ptr, ptr %3, align 8, !tbaa !4
  %12 = call zeroext i8 @lean_ptr_tag(ptr noundef %11)
  %13 = zext i8 %12 to i32
  store i32 %13, ptr %2, align 4
  br label %14

14:                                               ; preds = %10, %6
  %15 = load i32, ptr %2, align 4
  ret i32 %15
}

; Function Attrs: inlinehint nounwind uwtable
define internal ptr @lean_box(i64 noundef %0) #0 {
  %2 = alloca i64, align 8
  store i64 %0, ptr %2, align 8, !tbaa !8
  %3 = load i64, ptr %2, align 8, !tbaa !8
  %4 = shl i64 %3, 1
  %5 = or i64 %4, 1
  %6 = inttoptr i64 %5 to ptr
  ret ptr %6
}

; Function Attrs: alwaysinline nounwind uwtable
define internal void @lean_dec(ptr noundef %0) #1 {
  %2 = alloca ptr, align 8
  store ptr %0, ptr %2, align 8, !tbaa !4
  %3 = load ptr, ptr %2, align 8, !tbaa !4
  %4 = call zeroext i1 @lean_is_scalar(ptr noundef %3)
  br i1 %4, label %7, label %5

5:                                                ; preds = %1
  %6 = load ptr, ptr %2, align 8, !tbaa !4
  call void @lean_dec_ref(ptr noundef %6)
  br label %7

7:                                                ; preds = %5, %1
  ret void
}

; Function Attrs: nounwind uwtable
define zeroext i8 @l_Array_forIn_x27Unsafe_loop___at_Lean_Elab_Tactic_BVDecide_Frontend_Normalize_enumsPass_postprocess___spec__7___at_Lean_Elab_Tactic_BVDecide_Frontend_Normalize_enumsPass_postprocess___spec__8___lambda__1(ptr noundef %0) #2 {
  %2 = alloca i8, align 1
  %3 = alloca ptr, align 8
  %4 = alloca ptr, align 8
  %5 = alloca ptr, align 8
  %6 = alloca ptr, align 8
  %7 = alloca ptr, align 8
  %8 = alloca i8, align 1
  %9 = alloca i8, align 1
  %10 = alloca i32, align 4
  %11 = alloca i8, align 1
  %12 = alloca i8, align 1
  %13 = alloca i8, align 1
  %14 = alloca i8, align 1
  %15 = alloca i8, align 1
  %16 = alloca i8, align 1
  store ptr %0, ptr %3, align 8, !tbaa !4
  br label %17

17:                                               ; preds = %1
  %18 = load ptr, ptr %3, align 8, !tbaa !4
  %19 = call i32 @lean_obj_tag(ptr noundef %18)
  %20 = icmp eq i32 %19, 5
  br i1 %20, label %21, label %63

21:                                               ; preds = %17
  call void @llvm.lifetime.start.p0(i64 8, ptr %4) #8
  %22 = load ptr, ptr %3, align 8, !tbaa !4
  %23 = call ptr @lean_ctor_get(ptr noundef %22, i32 noundef 0)
  store ptr %23, ptr %4, align 8, !tbaa !4
  %24 = load ptr, ptr %4, align 8, !tbaa !4
  %25 = call i32 @lean_obj_tag(ptr noundef %24)
  %26 = icmp eq i32 %25, 4
  br i1 %26, label %27, label %60

27:                                               ; preds = %21
  call void @llvm.lifetime.start.p0(i64 8, ptr %5) #8
  %28 = load ptr, ptr %4, align 8, !tbaa !4
  %29 = call ptr @lean_ctor_get(ptr noundef %28, i32 noundef 0)
  store ptr %29, ptr %5, align 8, !tbaa !4
  %30 = load ptr, ptr %5, align 8, !tbaa !4
  %31 = call i32 @lean_obj_tag(ptr noundef %30)
  %32 = icmp eq i32 %31, 1
  br i1 %32, label %33, label %57

33:                                               ; preds = %27
  call void @llvm.lifetime.start.p0(i64 8, ptr %6) #8
  call void @llvm.lifetime.start.p0(i64 8, ptr %7) #8
  call void @llvm.lifetime.start.p0(i64 1, ptr %8) #8
  %34 = load ptr, ptr %5, align 8, !tbaa !4
  %35 = call ptr @lean_ctor_get(ptr noundef %34, i32 noundef 1)
  store ptr %35, ptr %6, align 8, !tbaa !4
  %36 = load ptr, ptr @l_Lean_Elab_Tactic_BVDecide_Frontend_Normalize_enumToBitVecSuffix, align 8, !tbaa !4
  store ptr %36, ptr %7, align 8, !tbaa !4
  %37 = load ptr, ptr %6, align 8, !tbaa !4
  %38 = load ptr, ptr %7, align 8, !tbaa !4
  %39 = call zeroext i8 @lean_string_dec_eq(ptr noundef %37, ptr noundef %38)
  store i8 %39, ptr %8, align 1, !tbaa !14
  %40 = load i8, ptr %8, align 1, !tbaa !14
  %41 = zext i8 %40 to i32
  %42 = icmp eq i32 %41, 0
  br i1 %42, label %43, label %45

43:                                               ; preds = %33
  call void @llvm.lifetime.start.p0(i64 1, ptr %9) #8
  store i8 0, ptr %9, align 1, !tbaa !14
  %44 = load i8, ptr %9, align 1, !tbaa !14
  store i8 %44, ptr %2, align 1
  store i32 1, ptr %10, align 4
  call void @llvm.lifetime.end.p0(i64 1, ptr %9) #8
  br label %56

45:                                               ; preds = %33
  call void @llvm.lifetime.start.p0(i64 1, ptr %11) #8
  %46 = load ptr, ptr %3, align 8, !tbaa !4
  %47 = call zeroext i8 @l_Lean_Expr_hasLooseBVars(ptr noundef %46)
  store i8 %47, ptr %11, align 1, !tbaa !14
  %48 = load i8, ptr %11, align 1, !tbaa !14
  %49 = zext i8 %48 to i32
  %50 = icmp eq i32 %49, 0
  br i1 %50, label %51, label %53

51:                                               ; preds = %45
  call void @llvm.lifetime.start.p0(i64 1, ptr %12) #8
  store i8 1, ptr %12, align 1, !tbaa !14
  %52 = load i8, ptr %12, align 1, !tbaa !14
  store i8 %52, ptr %2, align 1
  store i32 1, ptr %10, align 4
  call void @llvm.lifetime.end.p0(i64 1, ptr %12) #8
  br label %55

53:                                               ; preds = %45
  call void @llvm.lifetime.start.p0(i64 1, ptr %13) #8
  store i8 0, ptr %13, align 1, !tbaa !14
  %54 = load i8, ptr %13, align 1, !tbaa !14
  store i8 %54, ptr %2, align 1
  store i32 1, ptr %10, align 4
  call void @llvm.lifetime.end.p0(i64 1, ptr %13) #8
  br label %55

55:                                               ; preds = %53, %51
  call void @llvm.lifetime.end.p0(i64 1, ptr %11) #8
  br label %56

56:                                               ; preds = %55, %43
  call void @llvm.lifetime.end.p0(i64 1, ptr %8) #8
  call void @llvm.lifetime.end.p0(i64 8, ptr %7) #8
  call void @llvm.lifetime.end.p0(i64 8, ptr %6) #8
  br label %59

57:                                               ; preds = %27
  call void @llvm.lifetime.start.p0(i64 1, ptr %14) #8
  store i8 0, ptr %14, align 1, !tbaa !14
  %58 = load i8, ptr %14, align 1, !tbaa !14
  store i8 %58, ptr %2, align 1
  store i32 1, ptr %10, align 4
  call void @llvm.lifetime.end.p0(i64 1, ptr %14) #8
  br label %59

59:                                               ; preds = %57, %56
  call void @llvm.lifetime.end.p0(i64 8, ptr %5) #8
  br label %62

60:                                               ; preds = %21
  call void @llvm.lifetime.start.p0(i64 1, ptr %15) #8
  store i8 0, ptr %15, align 1, !tbaa !14
  %61 = load i8, ptr %15, align 1, !tbaa !14
  store i8 %61, ptr %2, align 1
  store i32 1, ptr %10, align 4
  call void @llvm.lifetime.end.p0(i64 1, ptr %15) #8
  br label %62

62:                                               ; preds = %60, %59
  call void @llvm.lifetime.end.p0(i64 8, ptr %4) #8
  br label %65

63:                                               ; preds = %17
  call void @llvm.lifetime.start.p0(i64 1, ptr %16) #8
  store i8 0, ptr %16, align 1, !tbaa !14
  %64 = load i8, ptr %16, align 1, !tbaa !14
  store i8 %64, ptr %2, align 1
  store i32 1, ptr %10, align 4
  call void @llvm.lifetime.end.p0(i64 1, ptr %16) #8
  br label %65

65:                                               ; preds = %63, %62
  %66 = load i8, ptr %2, align 1
  ret i8 %66
}

; Function Attrs: nounwind uwtable
define ptr @l_Array_forIn_x27Unsafe_loop___at_Lean_Elab_Tactic_BVDecide_Frontend_Normalize_enumsPass_postprocess___spec__7___at_Lean_Elab_Tactic_BVDecide_Frontend_Normalize_enumsPass_postprocess___spec__8___lambda__1___boxed(ptr noundef %0) #2 {
  %2 = alloca ptr, align 8
  %3 = alloca i8, align 1
  %4 = alloca ptr, align 8
  store ptr %0, ptr %2, align 8, !tbaa !4
  br label %5

5:                                                ; preds = %1
  call void @llvm.lifetime.start.p0(i64 1, ptr %3) #8
  call void @llvm.lifetime.start.p0(i64 8, ptr %4) #8
  %6 = load ptr, ptr %2, align 8, !tbaa !4
  %7 = call zeroext i8 @l_Array_forIn_x27Unsafe_loop___at_Lean_Elab_Tactic_BVDecide_Frontend_Normalize_enumsPass_postprocess___spec__7___at_Lean_Elab_Tactic_BVDecide_Frontend_Normalize_enumsPass_postprocess___spec__8___lambda__1(ptr noundef %6)
  store i8 %7, ptr %3, align 1, !tbaa !14
  %8 = load ptr, ptr %2, align 8, !tbaa !4
  call void @lean_dec(ptr noundef %8)
  %9 = load i8, ptr %3, align 1, !tbaa !14
  %10 = zext i8 %9 to i64
  %11 = call ptr @lean_box(i64 noundef %10)
  store ptr %11, ptr %4, align 8, !tbaa !4
  %12 = load ptr, ptr %4, align 8, !tbaa !4
  call void @llvm.lifetime.end.p0(i64 8, ptr %4) #8
  call void @llvm.lifetime.end.p0(i64 1, ptr %3) #8
  ret ptr %12
}