; Function Attrs: nounwind uwtable
define nonnull ptr @l_Array_forIn_x27Unsafe_loop___at_Lean_Elab_Tactic_BVDecide_Frontend_Normalize_enumsPass_postprocess___spec__7___at_Lean_Elab_Tactic_BVDecide_Frontend_Normalize_enumsPass_postprocess___spec__8___lambda__1___boxed(ptr noundef %0) #1 {
  %2 = ptrtoint ptr %0 to i64
  %3 = and i64 %2, 1
  %.not.i.i = icmp eq i64 %3, 0
  br i1 %.not.i.i, label %7, label %4

4:                                                ; preds = %1
  %5 = lshr i64 %2, 1
  %6 = trunc i64 %5 to i32
  br label %lean_obj_tag.exit.i

7:                                                ; preds = %1
  %8 = getelementptr i8, ptr %0, i64 4
  %.val.i.i = load i32, ptr %8, align 4
  %9 = lshr i32 %.val.i.i, 24
  br label %lean_obj_tag.exit.i

lean_obj_tag.exit.i:                              ; preds = %7, %4
  %.0.i.i = phi i32 [ %6, %4 ], [ %9, %7 ]
  %10 = icmp eq i32 %.0.i.i, 5
  br i1 %10, label %11, label %l_Array_forIn_x27Unsafe_loop___at_Lean_Elab_Tactic_BVDecide_Frontend_Normalize_enumsPass_postprocess___spec__7___at_Lean_Elab_Tactic_BVDecide_Frontend_Normalize_enumsPass_postprocess___spec__8___lambda__1.exit

11:                                               ; preds = %lean_obj_tag.exit.i
  %12 = getelementptr inbounds nuw i8, ptr %0, i64 8
  %13 = load ptr, ptr %12, align 8, !tbaa !11
  %14 = ptrtoint ptr %13 to i64
  %15 = and i64 %14, 1
  %.not.i17.i = icmp eq i64 %15, 0
  br i1 %.not.i17.i, label %19, label %16

16:                                               ; preds = %11
  %17 = lshr i64 %14, 1
  %18 = trunc i64 %17 to i32
  br label %lean_obj_tag.exit20.i

19:                                               ; preds = %11
  %20 = getelementptr i8, ptr %13, i64 4
  %.val.i19.i = load i32, ptr %20, align 4
  %21 = lshr i32 %.val.i19.i, 24
  br label %lean_obj_tag.exit20.i

lean_obj_tag.exit20.i:                            ; preds = %19, %16
  %.0.i18.i = phi i32 [ %18, %16 ], [ %21, %19 ]
  %22 = icmp eq i32 %.0.i18.i, 4
  br i1 %22, label %23, label %l_Array_forIn_x27Unsafe_loop___at_Lean_Elab_Tactic_BVDecide_Frontend_Normalize_enumsPass_postprocess___spec__7___at_Lean_Elab_Tactic_BVDecide_Frontend_Normalize_enumsPass_postprocess___spec__8___lambda__1.exit

23:                                               ; preds = %lean_obj_tag.exit20.i
  %24 = getelementptr inbounds nuw i8, ptr %13, i64 8
  %25 = load ptr, ptr %24, align 8, !tbaa !11
  %26 = ptrtoint ptr %25 to i64
  %27 = and i64 %26, 1
  %.not.i21.i = icmp eq i64 %27, 0
  br i1 %.not.i21.i, label %31, label %28

28:                                               ; preds = %23
  %29 = lshr i64 %26, 1
  %30 = trunc i64 %29 to i32
  br label %lean_obj_tag.exit24.i

31:                                               ; preds = %23
  %32 = getelementptr i8, ptr %25, i64 4
  %.val.i23.i = load i32, ptr %32, align 4
  %33 = lshr i32 %.val.i23.i, 24
  br label %lean_obj_tag.exit24.i

lean_obj_tag.exit24.i:                            ; preds = %31, %28
  %.0.i22.i = phi i32 [ %30, %28 ], [ %33, %31 ]
  %34 = icmp eq i32 %.0.i22.i, 1
  br i1 %34, label %35, label %l_Array_forIn_x27Unsafe_loop___at_Lean_Elab_Tactic_BVDecide_Frontend_Normalize_enumsPass_postprocess___spec__7___at_Lean_Elab_Tactic_BVDecide_Frontend_Normalize_enumsPass_postprocess___spec__8___lambda__1.exit

35:                                               ; preds = %lean_obj_tag.exit24.i
  %36 = getelementptr inbounds nuw i8, ptr %25, i64 16
  %37 = load ptr, ptr %36, align 8, !tbaa !11
  %38 = load ptr, ptr @l_Lean_Elab_Tactic_BVDecide_Frontend_Normalize_enumToBitVecSuffix, align 8, !tbaa !11
  %39 = icmp eq ptr %37, %38
  br i1 %39, label %lean_string_dec_eq.exit.thread25.i, label %40

40:                                               ; preds = %35
  %41 = getelementptr i8, ptr %37, i64 8
  %.val.i.i.i = load i64, ptr %41, align 8, !tbaa !9
  %42 = getelementptr i8, ptr %38, i64 8
  %.val7.i.i.i = load i64, ptr %42, align 8, !tbaa !9
  %43 = icmp eq i64 %.val.i.i.i, %.val7.i.i.i
  br i1 %43, label %lean_string_dec_eq.exit.i, label %l_Array_forIn_x27Unsafe_loop___at_Lean_Elab_Tactic_BVDecide_Frontend_Normalize_enumsPass_postprocess___spec__7___at_Lean_Elab_Tactic_BVDecide_Frontend_Normalize_enumsPass_postprocess___spec__8___lambda__1.exit

lean_string_dec_eq.exit.i:                        ; preds = %40
  %44 = tail call zeroext i1 @lean_string_eq_cold(ptr noundef nonnull %37, ptr noundef nonnull %38) #7
  br i1 %44, label %lean_string_dec_eq.exit.thread25.i, label %l_Array_forIn_x27Unsafe_loop___at_Lean_Elab_Tactic_BVDecide_Frontend_Normalize_enumsPass_postprocess___spec__7___at_Lean_Elab_Tactic_BVDecide_Frontend_Normalize_enumsPass_postprocess___spec__8___lambda__1.exit

lean_string_dec_eq.exit.thread25.i:               ; preds = %lean_string_dec_eq.exit.i, %35
  %45 = tail call zeroext i8 @l_Lean_Expr_hasLooseBVars(ptr noundef nonnull %0) #7
  %46 = icmp eq i8 %45, 0
  %47 = select i1 %46, i64 3, i64 1
  br label %l_Array_forIn_x27Unsafe_loop___at_Lean_Elab_Tactic_BVDecide_Frontend_Normalize_enumsPass_postprocess___spec__7___at_Lean_Elab_Tactic_BVDecide_Frontend_Normalize_enumsPass_postprocess___spec__8___lambda__1.exit

l_Array_forIn_x27Unsafe_loop___at_Lean_Elab_Tactic_BVDecide_Frontend_Normalize_enumsPass_postprocess___spec__7___at_Lean_Elab_Tactic_BVDecide_Frontend_Normalize_enumsPass_postprocess___spec__8___lambda__1.exit: ; preds = %lean_obj_tag.exit.i, %lean_obj_tag.exit20.i, %lean_obj_tag.exit24.i, %40, %lean_string_dec_eq.exit.i, %lean_string_dec_eq.exit.thread25.i
  %.4.i = phi i64 [ %47, %lean_string_dec_eq.exit.thread25.i ], [ 1, %lean_string_dec_eq.exit.i ], [ 1, %lean_obj_tag.exit24.i ], [ 1, %lean_obj_tag.exit20.i ], [ 1, %lean_obj_tag.exit.i ], [ 1, %40 ]
  br i1 %.not.i.i, label %48, label %lean_dec.exit

48:                                               ; preds = %l_Array_forIn_x27Unsafe_loop___at_Lean_Elab_Tactic_BVDecide_Frontend_Normalize_enumsPass_postprocess___spec__7___at_Lean_Elab_Tactic_BVDecide_Frontend_Normalize_enumsPass_postprocess___spec__8___lambda__1.exit
  %49 = load i32, ptr %0, align 4, !tbaa !4
  %50 = icmp sgt i32 %49, 1
  br i1 %50, label %51, label %53, !prof !13

51:                                               ; preds = %48
  %52 = add nsw i32 %49, -1
  store i32 %52, ptr %0, align 4, !tbaa !4
  br label %lean_dec.exit

53:                                               ; preds = %48
  %.not.i = icmp eq i32 %49, 0
  br i1 %.not.i, label %lean_dec.exit, label %54

54:                                               ; preds = %53
  tail call void @lean_dec_ref_cold(ptr noundef nonnull %0) #7
  br label %lean_dec.exit

lean_dec.exit:                                    ; preds = %54, %53, %51, %l_Array_forIn_x27Unsafe_loop___at_Lean_Elab_Tactic_BVDecide_Frontend_Normalize_enumsPass_postprocess___spec__7___at_Lean_Elab_Tactic_BVDecide_Frontend_Normalize_enumsPass_postprocess___spec__8___lambda__1.exit
  %55 = inttoptr i64 %.4.i to ptr
  ret ptr %55
}